Certificate:
    Data:
        Version: 3 (0x2)
        Serial Number: 4096 (0x1000)
    Signature Algorithm: sha256WithRSAEncryption
        Issuer: C=US, ST=TX, L=Dallas, O=SEA, CN=2404:180:2250:1::C112
        Validity
            Not Before: Aug 22 19:44:55 2019 GMT
            Not After : Aug 19 19:44:55 2029 GMT
        Subject: C=US, ST=TX, O=SEA, CN=2404:180:2250:1::C112
        Subject Public Key Info:
            Public Key Algorithm: rsaEncryption
                Public-Key: (2048 bit)
                Modulus:
                    00:ca:93:60:45:1d:31:b7:e0:26:cb:bd:cf:a6:51:
                    a9:c8:7c:ed:b2:66:ec:0b:cc:fd:6e:6c:95:f2:41:
                    b0:1f:5c:ac:e5:c3:c6:3e:a7:fe:0d:91:6b:d6:f3:
                    c3:62:44:ac:63:43:75:1f:03:56:06:5b:ff:51:03:
                    8f:be:d3:90:5a:51:b6:a0:24:47:b2:74:12:ca:08:
                    25:df:a9:63:87:54:fd:15:7d:4f:fa:33:33:96:30:
                    02:7e:45:82:d8:42:11:81:1a:81:52:93:b6:22:93:
                    d1:a3:f3:8e:f3:2d:31:3e:c6:09:0b:53:b0:81:07:
                    6a:c7:44:85:41:08:c9:e4:50:44:88:e9:e1:34:03:
                    b4:68:ac:d3:fc:a7:44:0b:99:c5:fa:53:08:07:0b:
                    ea:32:90:29:2d:2c:8d:59:46:0d:78:41:01:3d:c2:
                    72:36:c5:bf:05:48:f6:da:00:58:ea:35:e1:c7:e9:
                    7c:e3:b4:9e:d6:f0:12:31:58:39:55:a4:be:be:6a:
                    f6:80:48:54:3a:92:6b:8d:6c:05:f4:be:fd:f9:18:
                    bb:1e:83:00:b0:a5:ca:3b:4c:dc:81:98:7a:94:fb:
                    41:81:95:d8:05:2d:c3:e3:00:de:18:b1:11:a1:d5:
                    aa:75:df:09:27:d2:42:0a:43:c6:b6:45:91:13:cf:
                    01:55
                Exponent: 65537 (0x10001)
        X509v3 extensions:
            X509v3 Basic Constraints:
                CA:FALSE
            X509v3 Key Usage:
                Digital Signature, Non Repudiation, Key Encipherment
    Signature Algorithm: sha256WithRSAEncryption
         0b:ec:53:00:ac:e5:08:4d:e4:6d:09:de:0c:bf:af:ff:5f:f9:
         0e:48:2c:f5:ac:70:7a:17:1f:43:92:65:59:94:8b:fd:25:c9:
         18:31:33:33:6c:9e:38:76:d0:ce:7b:1c:ea:d8:02:24:85:45:
         50:08:ab:09:5c:f8:5c:62:3b:14:54:3c:a5:19:8b:91:7c:67:
         38:18:19:fd:c3:f1:e6:74:17:e2:3f:74:64:80:41:e4:9e:fe:
         5b:9a:5e:67:7c:33:00:f8:60:bb:62:9d:41:c9:5a:20:b8:6a:
         cb:7e:10:f2:91:4e:4e:80:32:6e:e9:18:f1:67:57:67:73:7c:
         01:be:27:58:f9:2f:d1:38:8a:be:3c:22:bb:a9:9c:04:ba:1b:
         a1:dd:f0:d0:fa:ba:1e:c6:41:61:03:87:fb:53:52:6f:ae:61:
         13:6b:33:44:24:cf:d0:bf:08:d9:bf:74:47:f5:02:35:b0:68:
         9d:f0:55:89:61:2d:b5:02:10:cf:7b:67:6c:56:59:d8:66:79:
         e0:a5:7b:70:d4:76:32:3c:d5:e9:c4:25:2a:e3:f0:d2:a7:c6:
         e5:72:67:23:ec:52:05:3f:57:50:ee:51:72:59:39:1c:86:4c:
         b4:27:d8:ef:dc:e1:7a:b3:0d:97:fe:5a:b3:9b:d3:70:6f:f0:
         ca:fc:a6:f4:3d:e1:a1:1c:e6:63:9f:21:a4:a7:29:f9:12:09:
         c4:2e:62:9c:e6:0e:dc:a0:ad:03:00:6b:51:f6:f6:c6:47:21:
         4d:34:c3:cc:49:9f:d1:6b:90:e3:29:ac:50:aa:53:c8:4b:3b:
         e4:85:71:a5:8a:9f:58:91:7d:71:ca:e7:28:16:41:56:36:54:
         71:d7:3d:6f:13:d7:37:ad:23:83:ea:2a:34:1f:e5:26:0c:e7:
         5a:b6:93:a7:1a:ca:b1:de:e0:56:18:89:4f:6a:09:ee:64:69:
         75:5a:ae:c8:3e:ef:d0:94:b2:c0:be:16:ee:6f:94:7e:dd:40:
         84:ac:5b:be:4a:cd:56:ce:b9:20:a3:b6:8b:62:fe:ec:dd:9d:
         01:14:99:67:9b:28:63:2a:2b:2b:23:42:87:30:9e:3b:be:4a:
         c4:12:20:f8:3c:77:c2:be:d2:d0:c3:b3:b1:fd:06:be:c4:e0:
         37:e3:9c:2e:3c:db:a1:73:57:b9:a7:93:98:70:cf:db:16:fc:
         cc:0f:af:9c:f2:3a:d4:a7:ab:96:1e:9f:25:f1:f3:cf:0a:9a:
         15:86:66:d5:6e:51:2f:a8:cd:6c:a8:4e:95:cd:19:e3:17:80:
         91:e5:f9:04:cc:63:f4:eb:05:3a:89:0e:81:46:b4:7c:51:25:
         90:dc:65:6a:a8:dd:71:6f
-----BEGIN CERTIFICATE-----
MIIENzCCAh+gAwIBAgICEAAwDQYJKoZIhvcNAQELBQAwWTELMAkGA1UEBhMCVVMx
CzAJBgNVBAgMAlRYMQ8wDQYDVQQHDAZEYWxsYXMxDDAKBgNVBAoMA1NFQTEeMBwG
A1UEAwwVMjQwNDoxODA6MjI1MDoxOjpDMTEyMB4XDTE5MDgyMjE5NDQ1NVoXDTI5
MDgxOTE5NDQ1NVowSDELMAkGA1UEBhMCVVMxCzAJBgNVBAgMAlRYMQwwCgYDVQQK
DANTRUExHjAcBgNVBAMMFTI0MDQ6MTgwOjIyNTA6MTo6QzExMjCCASIwDQYJKoZI
hvcNAQEBBQADggEPADCCAQoCggEBAMqTYEUdMbfgJsu9z6ZRqch87bJm7AvM/W5s
lfJBsB9crOXDxj6n/g2Ra9bzw2JErGNDdR8DVgZb/1EDj77TkFpRtqAkR7J0EsoI
Jd+pY4dU/RV9T/ozM5YwAn5FgthCEYEagVKTtiKT0aPzjvMtMT7GCQtTsIEHasdE
hUEIyeRQRIjp4TQDtGis0/ynRAuZxfpTCAcL6jKQKS0sjVlGDXhBAT3CcjbFvwVI
9toAWOo14cfpfOO0ntbwEjFYOVWkvr5q9oBIVDqSa41sBfS+/fkYux6DALClyjtM
3IGYepT7QYGV2AUtw+MA3hixEaHVqnXfCSfSQgpDxrZFkRPPAVUCAwEAAaMaMBgw
CQYDVR0TBAIwADALBgNVHQ8EBAMCBeAwDQYJKoZIhvcNAQELBQADggIBAAvsUwCs
5QhN5G0J3gy/r/9f+Q5ILPWscHoXH0OSZVmUi/0lyRgxMzNsnjh20M57HOrYAiSF
RVAIqwlc+FxiOxRUPKUZi5F8ZzgYGf3D8eZ0F+I/dGSAQeSe/luaXmd8MwD4YLti
nUHJWiC4ast+EPKRTk6AMm7pGPFnV2dzfAG+J1j5L9E4ir48IrupnAS6G6Hd8ND6
uh7GQWEDh/tTUm+uYRNrM0Qkz9C/CNm/dEf1AjWwaJ3wVYlhLbUCEM97Z2xWWdhm
eeCle3DUdjI81enEJSrj8NKnxuVyZyPsUgU/V1DuUXJZORyGTLQn2O/c4XqzDZf+
WrOb03Bv8Mr8pvQ94aEc5mOfIaSnKfkSCcQuYpzmDtygrQMAa1H29sZHIU00w8xJ
n9FrkOMprFCqU8hLO+SFcaWKn1iRfXHK5ygWQVY2VHHXPW8T1zetI4PqKjQf5SYM
51q2k6cayrHe4FYYiU9qCe5kaXVarsg+79CUssC+Fu5vlH7dQISsW75KzVbOuSCj
toti/uzdnQEUmWebKGMqKysjQocwnju+SsQSIPg8d8K+0tDDs7H9Br7E4DfjnC48
26FzV7mnk5hwz9sW/MwPr5zyOtSnq5YenyXx888KmhWGZtVuUS+ozWyoTpXNGeMX
gJHl+QTMY/TrBTqJDoFGtHxRJZDcZWqo3XFv
-----END CERTIFICATE-----
