Certificate:
    Data:
        Version: 3 (0x2)
        Serial Number: 15415075885696582143 (0xd5ed59d870a281ff)
    Signature Algorithm: sha1WithRSAEncryption
        Issuer: C=US, ST=North Carolina, L=Raleigh, O=Katello, OU=SomeOrgUnit, CN=sat6-ha.sysmgmt.bos.redhat.com
        Validity
            Not Before: Oct 29 11:46:35 2015 GMT
            Not After : Oct 31 11:46:35 2035 GMT
        Subject: C=US, ST=North Carolina, O=FOREMAN, OU=FOREMAN_PROXY, CN=sat6-ha.sysmgmt.bos.redhat.com
        Subject Public Key Info:
            Public Key Algorithm: rsaEncryption
                Public-Key: (2048 bit)
                Modulus:
                    00:c7:df:36:29:de:8f:ab:64:9a:92:69:12:9d:77:
                    f4:16:05:ce:2e:26:78:6a:79:b1:1d:09:dd:98:65:
                    02:fd:2f:62:6b:7f:1e:ff:55:38:bf:34:84:c0:53:
                    fd:4c:ac:08:41:45:49:29:be:b4:b7:a4:79:f6:57:
                    d1:bc:79:52:47:58:7f:91:b8:82:34:94:59:31:0a:
                    b6:79:9f:83:c5:4b:a4:50:b8:6a:53:aa:99:0a:19:
                    3d:c4:bc:48:cb:4c:f8:83:27:76:a1:f4:ff:13:85:
                    c0:6f:25:f7:df:d2:ef:49:74:fd:0c:8b:76:23:16:
                    5f:99:bd:8d:8c:05:1e:95:bd:06:c1:93:16:76:19:
                    cd:db:f4:14:29:90:18:92:71:9f:12:9c:20:63:dd:
                    bc:7d:d9:98:b8:2a:b7:00:6a:10:3c:d6:23:e6:e3:
                    69:e5:b1:df:a0:61:62:1f:c6:bf:a2:69:88:36:c3:
                    d4:5b:3e:aa:f3:68:02:ca:eb:49:6f:38:a5:0d:b7:
                    06:21:f1:ba:49:5d:e6:8a:f1:8d:28:87:19:7d:9a:
                    af:d1:b3:a2:75:3b:73:cc:70:62:5a:f7:bd:e3:2d:
                    62:99:ef:7f:17:c5:0a:39:e0:d8:cf:f2:73:d7:73:
                    53:66:95:a7:30:e0:37:4e:18:ca:c5:fc:49:c8:db:
                    6b:5d
                Exponent: 65537 (0x10001)
        X509v3 extensions:
            X509v3 Basic Constraints: 
                CA:FALSE
            X509v3 Key Usage: 
                Digital Signature, Key Encipherment
            X509v3 Extended Key Usage: 
                TLS Web Server Authentication, TLS Web Client Authentication
            Netscape Cert Type: 
                SSL Client
            Netscape Comment: 
                Katello SSL Tool Generated Certificate
            X509v3 Subject Key Identifier: 
                00:60:A5:86:9D:14:4C:20:46:2C:85:E7:C6:07:62:18:E2:2E:89:76
            X509v3 Authority Key Identifier: 
                keyid:CA:C3:DC:81:00:93:C2:E0:6E:5C:C7:D3:92:4E:58:A0:21:8A:7D:F6
                DirName:/C=US/ST=North Carolina/L=Raleigh/O=Katello/OU=SomeOrgUnit/CN=sat6-ha.sysmgmt.bos.redhat.com
                serial:D5:ED:59:D8:70:A2:81:F8

            X509v3 Subject Alternative Name: 
                DNS:sat6-ha.sysmgmt.bos.redhat.com
    Signature Algorithm: sha1WithRSAEncryption
         4f:71:3b:c5:17:b5:ac:b7:0c:3e:0a:c4:4e:90:9d:01:cd:44:
         80:c8:b8:17:b5:10:9f:af:c2:86:f8:4c:6b:34:8e:1f:dd:b9:
         9f:a4:a3:c2:ce:c5:cb:0a:4f:73:c3:3b:9d:ac:c4:9e:f8:ba:
         9b:29:9e:21:ba:da:49:b3:c5:3b:97:85:1a:d6:76:84:e1:cd:
         d5:96:ab:50:b9:81:38:22:78:ea:73:b4:9f:c8:b5:74:58:60:
         a0:07:2b:4a:5a:c9:5c:84:f7:e6:88:3f:cd:d8:27:8f:ce:ab:
         94:c2:a4:0b:6d:e2:1c:ed:2a:81:21:90:e5:a8:e3:90:c5:14:
         a1:dd:84:b3:cb:51:3a:14:e7:74:c4:db:bd:ce:d1:c0:e9:df:
         17:c6:fe:c2:5f:7a:d7:06:e8:6d:9b:b9:07:ff:50:c6:ca:77:
         4a:de:b8:5b:3a:3a:a2:3b:9d:e2:34:d8:5e:d1:5e:bc:a4:f2:
         64:ae:a4:ad:64:8e:60:5f:81:97:57:3f:66:92:e9:12:b7:c4:
         31:35:37:01:6a:b7:78:08:87:52:67:f3:ef:b2:c2:0e:be:dc:
         ab:fd:0b:d2:b0:4b:9b:26:de:cf:1e:a7:ec:13:42:7f:96:97:
         a4:99:76:7e:c4:61:0b:a6:5c:60:b1:84:79:62:93:03:30:94:
         e5:9c:58:76
-----BEGIN CERTIFICATE-----
MIIFGDCCBACgAwIBAgIJANXtWdhwooH/MA0GCSqGSIb3DQEBBQUAMIGJMQswCQYD
VQQGEwJVUzEXMBUGA1UECBMOTm9ydGggQ2Fyb2xpbmExEDAOBgNVBAcTB1JhbGVp
Z2gxEDAOBgNVBAoTB0thdGVsbG8xFDASBgNVBAsTC1NvbWVPcmdVbml0MScwJQYD
VQQDEx5zYXQ2LWhhLnN5c21nbXQuYm9zLnJlZGhhdC5jb20wHhcNMTUxMDI5MTE0
NjM1WhcNMzUxMDMxMTE0NjM1WjB5MQswCQYDVQQGEwJVUzEXMBUGA1UECBMOTm9y
dGggQ2Fyb2xpbmExEDAOBgNVBAoTB0ZPUkVNQU4xFjAUBgNVBAsUDUZPUkVNQU5f
UFJPWFkxJzAlBgNVBAMTHnNhdDYtaGEuc3lzbWdtdC5ib3MucmVkaGF0LmNvbTCC
ASIwDQYJKoZIhvcNAQEBBQADggEPADCCAQoCggEBAMffNinej6tkmpJpEp139BYF
zi4meGp5sR0J3ZhlAv0vYmt/Hv9VOL80hMBT/UysCEFFSSm+tLekefZX0bx5UkdY
f5G4gjSUWTEKtnmfg8VLpFC4alOqmQoZPcS8SMtM+IMndqH0/xOFwG8l99/S70l0
/QyLdiMWX5m9jYwFHpW9BsGTFnYZzdv0FCmQGJJxnxKcIGPdvH3ZmLgqtwBqEDzW
I+bjaeWx36BhYh/Gv6JpiDbD1Fs+qvNoAsrrSW84pQ23BiHxukld5orxjSiHGX2a
r9GzonU7c8xwYlr3veMtYpnvfxfFCjng2M/yc9dzU2aVpzDgN04YysX8Scjba10C
AwEAAaOCAZAwggGMMAkGA1UdEwQCMAAwCwYDVR0PBAQDAgWgMB0GA1UdJQQWMBQG
CCsGAQUFBwMBBggrBgEFBQcDAjARBglghkgBhvhCAQEEBAMCB4AwNQYJYIZIAYb4
QgENBCgWJkthdGVsbG8gU1NMIFRvb2wgR2VuZXJhdGVkIENlcnRpZmljYXRlMB0G
A1UdDgQWBBQAYKWGnRRMIEYshefGB2IY4i6JdjCBvgYDVR0jBIG2MIGzgBTKw9yB
AJPC4G5cx9OSTligIYp99qGBj6SBjDCBiTELMAkGA1UEBhMCVVMxFzAVBgNVBAgT
Dk5vcnRoIENhcm9saW5hMRAwDgYDVQQHEwdSYWxlaWdoMRAwDgYDVQQKEwdLYXRl
bGxvMRQwEgYDVQQLEwtTb21lT3JnVW5pdDEnMCUGA1UEAxMec2F0Ni1oYS5zeXNt
Z210LmJvcy5yZWRoYXQuY29tggkA1e1Z2HCigfgwKQYDVR0RBCIwIIIec2F0Ni1o
YS5zeXNtZ210LmJvcy5yZWRoYXQuY29tMA0GCSqGSIb3DQEBBQUAA4IBAQBPcTvF
F7Wstww+CsROkJ0BzUSAyLgXtRCfr8KG+ExrNI4f3bmfpKPCzsXLCk9zwzudrMSe
+LqbKZ4hutpJs8U7l4Ua1naE4c3VlqtQuYE4Injqc7SfyLV0WGCgBytKWslchPfm
iD/N2CePzquUwqQLbeIc7SqBIZDlqOOQxRSh3YSzy1E6FOd0xNu9ztHA6d8Xxv7C
X3rXBuhtm7kH/1DGyndK3rhbOjqiO53iNNhe0V68pPJkrqStZI5gX4GXVz9mkukS
t8QxNTcBard4CIdSZ/PvssIOvtyr/QvSsEubJt7PHqfsE0J/lpekmXZ+xGELplxg
sYR5YpMDMJTlnFh2
-----END CERTIFICATE-----
