Certificate:
    Data:
        Version: 3 (0x2)
        Serial Number: 15415075885696582136 (0xd5ed59d870a281f8)
    Signature Algorithm: sha1WithRSAEncryption
        Issuer: C=US, ST=North Carolina, L=Raleigh, O=Katello, OU=SomeOrgUnit, CN=sat6-ha.sysmgmt.bos.redhat.com
        Validity
            Not Before: Nov  5 11:45:40 2015 GMT
            Not After : Jan 18 11:45:40 2038 GMT
        Subject: C=US, ST=North Carolina, L=Raleigh, O=Katello, OU=SomeOrgUnit, CN=sat6-ha.sysmgmt.bos.redhat.com
        Subject Public Key Info:
            Public Key Algorithm: rsaEncryption
                Public-Key: (2048 bit)
                Modulus:
                    00:cb:dd:78:ed:91:ae:02:99:33:b4:23:97:bd:a2:
                    d8:b7:79:79:7f:6c:f6:b6:0a:d4:d2:bc:7d:60:5e:
                    5a:7a:5e:ff:64:74:41:8b:72:6e:a8:b3:7f:4c:c8:
                    d2:8e:37:d3:dd:f7:b2:f9:96:3a:8d:1e:73:73:2d:
                    5a:d6:26:28:20:22:05:a5:c3:c5:5c:be:38:d8:32:
                    34:90:4d:94:9d:1e:f3:a7:2e:7c:d1:3c:a8:d8:f8:
                    f1:2b:3a:e7:a2:52:0d:4e:bb:22:1b:b7:83:5e:e1:
                    14:7a:ab:bb:75:66:83:98:58:91:23:0c:75:13:f9:
                    45:9a:67:99:45:cf:b7:5c:23:b4:90:82:c8:0a:63:
                    10:d8:aa:2e:df:e9:00:9e:c8:b3:ea:af:37:10:19:
                    17:da:7a:1d:b9:ee:1c:f2:80:1c:ba:d4:6d:65:fe:
                    3d:4b:3b:1e:e8:e9:cc:74:07:50:b4:47:df:9e:4b:
                    6b:b5:86:4b:27:13:ac:00:0f:ab:b6:a0:69:c2:3d:
                    f2:ad:f0:ea:1e:9d:fa:d6:c0:09:b1:ed:86:ed:62:
                    14:f7:b6:1d:4e:96:ac:72:74:ed:85:fb:36:20:ca:
                    21:47:77:89:14:7c:08:09:01:81:6b:26:c6:b7:94:
                    66:4e:85:68:ff:01:3e:22:88:46:56:f6:45:f5:0e:
                    2b:b9
                Exponent: 65537 (0x10001)
        X509v3 extensions:
            X509v3 Basic Constraints: 
                CA:TRUE
            X509v3 Key Usage: 
                Digital Signature, Key Encipherment, Certificate Sign, CRL Sign
            X509v3 Extended Key Usage: 
                TLS Web Server Authentication, TLS Web Client Authentication
            Netscape Cert Type: 
                SSL Server, SSL CA
            Netscape Comment: 
                Katello SSL Tool Generated Certificate
            X509v3 Subject Key Identifier: 
                CA:C3:DC:81:00:93:C2:E0:6E:5C:C7:D3:92:4E:58:A0:21:8A:7D:F6
            X509v3 Authority Key Identifier: 
                keyid:CA:C3:DC:81:00:93:C2:E0:6E:5C:C7:D3:92:4E:58:A0:21:8A:7D:F6
                DirName:/C=US/ST=North Carolina/L=Raleigh/O=Katello/OU=SomeOrgUnit/CN=sat6-ha.sysmgmt.bos.redhat.com
                serial:D5:ED:59:D8:70:A2:81:F8

    Signature Algorithm: sha1WithRSAEncryption
         c7:37:8f:92:3a:a1:8b:03:2b:2e:64:9d:0b:0c:f2:4c:23:66:
         ce:60:05:1b:dd:5e:6b:96:8e:68:bc:ec:e1:0e:f6:4c:56:1a:
         cd:73:34:d7:c1:ac:61:a1:3c:34:d9:94:e4:f2:46:e0:05:76:
         80:c6:79:d6:26:bd:75:03:e2:13:40:5e:db:d2:99:de:09:de:
         ea:48:c8:45:67:2a:7b:d6:80:2d:da:04:e7:81:2f:d8:43:3d:
         00:ff:87:a1:86:6b:79:4b:91:1d:5b:01:7d:bc:56:86:62:c9:
         58:98:ce:33:11:e1:09:a4:f9:d2:b9:9c:a1:84:fb:09:00:8d:
         d4:20:50:19:5e:f9:70:b3:f5:85:3c:16:df:b4:08:42:c4:0e:
         14:df:80:76:ad:b2:79:2d:2b:ee:bf:33:b2:0e:c3:37:13:6f:
         66:a3:72:cb:5f:8d:5a:2c:cc:d5:47:6a:c9:4d:d8:b2:80:b4:
         03:71:eb:4e:e4:6e:93:13:96:c6:e2:45:e7:21:b8:95:71:de:
         77:4d:01:63:1b:2b:fd:79:86:ae:8f:bf:db:4e:69:1e:56:60:
         5b:34:0d:83:5f:ae:bf:0a:c7:a1:95:cb:87:b5:7a:a4:16:dc:
         65:fd:84:00:6f:17:08:94:e4:06:6b:62:16:6c:16:a8:e1:11:
         a5:b8:01:f6
-----BEGIN CERTIFICATE-----
MIIFATCCA+mgAwIBAgIJANXtWdhwooH4MA0GCSqGSIb3DQEBBQUAMIGJMQswCQYD
VQQGEwJVUzEXMBUGA1UECBMOTm9ydGggQ2Fyb2xpbmExEDAOBgNVBAcTB1JhbGVp
Z2gxEDAOBgNVBAoTB0thdGVsbG8xFDASBgNVBAsTC1NvbWVPcmdVbml0MScwJQYD
VQQDEx5zYXQ2LWhhLnN5c21nbXQuYm9zLnJlZGhhdC5jb20wHhcNMTUxMTA1MTE0
NTQwWhcNMzgwMTE4MTE0NTQwWjCBiTELMAkGA1UEBhMCVVMxFzAVBgNVBAgTDk5v
cnRoIENhcm9saW5hMRAwDgYDVQQHEwdSYWxlaWdoMRAwDgYDVQQKEwdLYXRlbGxv
MRQwEgYDVQQLEwtTb21lT3JnVW5pdDEnMCUGA1UEAxMec2F0Ni1oYS5zeXNtZ210
LmJvcy5yZWRoYXQuY29tMIIBIjANBgkqhkiG9w0BAQEFAAOCAQ8AMIIBCgKCAQEA
y9147ZGuApkztCOXvaLYt3l5f2z2tgrU0rx9YF5ael7/ZHRBi3JuqLN/TMjSjjfT
3fey+ZY6jR5zcy1a1iYoICIFpcPFXL442DI0kE2UnR7zpy580Tyo2PjxKzrnolIN
TrsiG7eDXuEUequ7dWaDmFiRIwx1E/lFmmeZRc+3XCO0kILICmMQ2Kou3+kAnsiz
6q83EBkX2nodue4c8oAcutRtZf49Szse6OnMdAdQtEffnktrtYZLJxOsAA+rtqBp
wj3yrfDqHp361sAJse2G7WIU97YdTpascnTthfs2IMohR3eJFHwICQGBaybGt5Rm
ToVo/wE+IohGVvZF9Q4ruQIDAQABo4IBaDCCAWQwDAYDVR0TBAUwAwEB/zALBgNV
HQ8EBAMCAaYwHQYDVR0lBBYwFAYIKwYBBQUHAwEGCCsGAQUFBwMCMBEGCWCGSAGG
+EIBAQQEAwICRDA1BglghkgBhvhCAQ0EKBYmS2F0ZWxsbyBTU0wgVG9vbCBHZW5l
cmF0ZWQgQ2VydGlmaWNhdGUwHQYDVR0OBBYEFMrD3IEAk8LgblzH05JOWKAhin32
MIG+BgNVHSMEgbYwgbOAFMrD3IEAk8LgblzH05JOWKAhin32oYGPpIGMMIGJMQsw
CQYDVQQGEwJVUzEXMBUGA1UECBMOTm9ydGggQ2Fyb2xpbmExEDAOBgNVBAcTB1Jh
bGVpZ2gxEDAOBgNVBAoTB0thdGVsbG8xFDASBgNVBAsTC1NvbWVPcmdVbml0MScw
JQYDVQQDEx5zYXQ2LWhhLnN5c21nbXQuYm9zLnJlZGhhdC5jb22CCQDV7VnYcKKB
+DANBgkqhkiG9w0BAQUFAAOCAQEAxzePkjqhiwMrLmSdCwzyTCNmzmAFG91ea5aO
aLzs4Q72TFYazXM018GsYaE8NNmU5PJG4AV2gMZ51ia9dQPiE0Be29KZ3gne6kjI
RWcqe9aALdoE54Ev2EM9AP+HoYZreUuRHVsBfbxWhmLJWJjOMxHhCaT50rmcoYT7
CQCN1CBQGV75cLP1hTwW37QIQsQOFN+Adq2yeS0r7r8zsg7DNxNvZqNyy1+NWizM
1UdqyU3YsoC0A3HrTuRukxOWxuJF5yG4lXHed00BYxsr/XmGro+/205pHlZgWzQN
g1+uvwrHoZXLh7V6pBbcZf2EAG8XCJTkBmtiFmwWqOERpbgB9g==
-----END CERTIFICATE-----
