Certificate:
    Data:
        Version: 3 (0x2)
        Serial Number: 15415075885696582144 (0xd5ed59d870a28200)
    Signature Algorithm: sha1WithRSAEncryption
        Issuer: C=US, ST=North Carolina, L=Raleigh, O=Katello, OU=SomeOrgUnit, CN=sat6-ha.sysmgmt.bos.redhat.com
        Validity
            Not Before: Oct 29 11:46:36 2015 GMT
            Not After : Oct 31 11:46:36 2035 GMT
        Subject: C=US, ST=North Carolina, O=FOREMAN, OU=SMART_PROXY, CN=sat6-ha.sysmgmt.bos.redhat.com
        Subject Public Key Info:
            Public Key Algorithm: rsaEncryption
                Public-Key: (2048 bit)
                Modulus:
                    00:f3:d9:c0:49:a1:74:a9:79:e6:97:03:49:f8:65:
                    69:4c:af:80:03:0a:07:92:9f:15:1c:93:50:13:89:
                    75:21:c9:59:3a:23:c9:57:b4:be:b3:c9:d9:a3:cb:
                    7e:a1:c3:b7:8c:fb:a3:d7:14:4e:f2:37:8c:6b:c5:
                    39:69:62:fc:82:7f:5b:9f:f4:3c:69:ca:c8:c1:8c:
                    83:0f:61:3e:df:59:68:ca:30:ea:f5:7c:c2:76:99:
                    7f:95:07:6b:d3:e4:54:9f:ca:0f:5f:55:52:a3:11:
                    35:59:b9:38:53:3e:fc:28:3f:a6:92:36:46:58:cc:
                    62:ca:a7:39:61:1a:cb:51:a0:72:81:5e:67:65:4f:
                    99:ef:ed:fc:61:6f:56:d6:d6:80:6a:a1:59:fd:c8:
                    dc:dc:e2:49:a9:17:bb:b8:6e:8d:35:f0:95:11:5f:
                    3a:b8:7a:92:ea:40:48:15:bb:0a:7a:6a:6c:4d:90:
                    e5:ae:36:df:26:fc:17:0f:0e:24:38:a9:b6:25:14:
                    a1:06:88:62:39:c2:3c:1f:fb:d7:ac:6f:bc:97:8e:
                    23:0a:1e:2a:86:a4:9f:2e:cb:c3:dc:e1:1a:e9:64:
                    47:df:d4:af:d9:20:5a:40:35:2f:6b:08:86:ed:40:
                    d8:b4:38:71:14:94:5f:69:19:9c:22:35:4d:fc:d0:
                    db:67
                Exponent: 65537 (0x10001)
        X509v3 extensions:
            X509v3 Basic Constraints: 
                CA:FALSE
            X509v3 Key Usage: 
                Digital Signature, Key Encipherment
            X509v3 Extended Key Usage: 
                TLS Web Server Authentication, TLS Web Client Authentication
            Netscape Cert Type: 
                SSL Server
            Netscape Comment: 
                Katello SSL Tool Generated Certificate
            X509v3 Subject Key Identifier: 
                EB:7A:4B:30:73:56:BE:BF:0C:79:AC:A0:CB:72:34:FE:59:15:8F:6A
            X509v3 Authority Key Identifier: 
                keyid:CA:C3:DC:81:00:93:C2:E0:6E:5C:C7:D3:92:4E:58:A0:21:8A:7D:F6
                DirName:/C=US/ST=North Carolina/L=Raleigh/O=Katello/OU=SomeOrgUnit/CN=sat6-ha.sysmgmt.bos.redhat.com
                serial:D5:ED:59:D8:70:A2:81:F8

            X509v3 Subject Alternative Name: 
                DNS:sat6-ha.sysmgmt.bos.redhat.com
    Signature Algorithm: sha1WithRSAEncryption
         13:80:b9:b4:14:11:b9:ab:41:7e:5c:87:6c:b3:52:4f:c3:4f:
         e5:78:d6:aa:cc:bc:c8:62:a2:22:e7:f9:76:17:25:81:b9:2f:
         bd:32:dc:34:d3:97:fc:cd:64:38:17:84:fe:d8:f9:cc:88:cc:
         f1:b0:79:32:4f:f9:f2:e7:cb:68:91:35:8b:3e:72:86:98:93:
         d3:2f:bd:cb:cf:40:0d:5f:f3:85:fa:2c:f6:ec:88:b3:92:c6:
         61:64:d0:f4:ed:9f:49:b1:41:4e:44:ff:b6:9b:8f:70:81:04:
         c8:b9:34:3c:7d:ef:78:cb:52:56:f4:be:6c:52:9d:4b:e3:bc:
         ef:cf:a7:29:76:53:1b:18:70:7a:9c:2d:3c:63:63:d0:6a:80:
         cf:b2:5c:fe:29:7e:2e:e4:30:64:fa:b6:20:c4:29:cb:4f:8a:
         7b:ff:2e:7a:ca:dd:8a:71:0e:c2:0f:65:26:a3:cc:6a:74:84:
         bc:ce:53:7b:dd:77:a1:a1:41:3c:83:3e:a4:e0:ef:09:1a:33:
         2d:1a:40:9a:c6:c8:df:d0:85:ce:3d:15:8e:40:92:5b:62:1f:
         77:0d:7b:ed:84:f2:45:60:a8:00:29:cf:ee:c1:6f:8a:c7:2f:
         46:35:1b:a7:24:24:23:24:4b:a0:bf:f6:9a:c6:6e:58:8a:a5:
         b6:b2:0f:27
-----BEGIN CERTIFICATE-----
MIIFFjCCA/6gAwIBAgIJANXtWdhwooIAMA0GCSqGSIb3DQEBBQUAMIGJMQswCQYD
VQQGEwJVUzEXMBUGA1UECBMOTm9ydGggQ2Fyb2xpbmExEDAOBgNVBAcTB1JhbGVp
Z2gxEDAOBgNVBAoTB0thdGVsbG8xFDASBgNVBAsTC1NvbWVPcmdVbml0MScwJQYD
VQQDEx5zYXQ2LWhhLnN5c21nbXQuYm9zLnJlZGhhdC5jb20wHhcNMTUxMDI5MTE0
NjM2WhcNMzUxMDMxMTE0NjM2WjB3MQswCQYDVQQGEwJVUzEXMBUGA1UECBMOTm9y
dGggQ2Fyb2xpbmExEDAOBgNVBAoTB0ZPUkVNQU4xFDASBgNVBAsUC1NNQVJUX1BS
T1hZMScwJQYDVQQDEx5zYXQ2LWhhLnN5c21nbXQuYm9zLnJlZGhhdC5jb20wggEi
MA0GCSqGSIb3DQEBAQUAA4IBDwAwggEKAoIBAQDz2cBJoXSpeeaXA0n4ZWlMr4AD
CgeSnxUck1ATiXUhyVk6I8lXtL6zydmjy36hw7eM+6PXFE7yN4xrxTlpYvyCf1uf
9DxpysjBjIMPYT7fWWjKMOr1fMJ2mX+VB2vT5FSfyg9fVVKjETVZuThTPvwoP6aS
NkZYzGLKpzlhGstRoHKBXmdlT5nv7fxhb1bW1oBqoVn9yNzc4kmpF7u4bo018JUR
Xzq4epLqQEgVuwp6amxNkOWuNt8m/BcPDiQ4qbYlFKEGiGI5wjwf+9esb7yXjiMK
HiqGpJ8uy8Pc4RrpZEff1K/ZIFpANS9rCIbtQNi0OHEUlF9pGZwiNU380NtnAgMB
AAGjggGQMIIBjDAJBgNVHRMEAjAAMAsGA1UdDwQEAwIFoDAdBgNVHSUEFjAUBggr
BgEFBQcDAQYIKwYBBQUHAwIwEQYJYIZIAYb4QgEBBAQDAgZAMDUGCWCGSAGG+EIB
DQQoFiZLYXRlbGxvIFNTTCBUb29sIEdlbmVyYXRlZCBDZXJ0aWZpY2F0ZTAdBgNV
HQ4EFgQU63pLMHNWvr8Meaygy3I0/lkVj2owgb4GA1UdIwSBtjCBs4AUysPcgQCT
wuBuXMfTkk5YoCGKffahgY+kgYwwgYkxCzAJBgNVBAYTAlVTMRcwFQYDVQQIEw5O
b3J0aCBDYXJvbGluYTEQMA4GA1UEBxMHUmFsZWlnaDEQMA4GA1UEChMHS2F0ZWxs
bzEUMBIGA1UECxMLU29tZU9yZ1VuaXQxJzAlBgNVBAMTHnNhdDYtaGEuc3lzbWdt
dC5ib3MucmVkaGF0LmNvbYIJANXtWdhwooH4MCkGA1UdEQQiMCCCHnNhdDYtaGEu
c3lzbWdtdC5ib3MucmVkaGF0LmNvbTANBgkqhkiG9w0BAQUFAAOCAQEAE4C5tBQR
uatBflyHbLNST8NP5XjWqsy8yGKiIuf5dhclgbkvvTLcNNOX/M1kOBeE/tj5zIjM
8bB5Mk/58ufLaJE1iz5yhpiT0y+9y89ADV/zhfos9uyIs5LGYWTQ9O2fSbFBTkT/
tpuPcIEEyLk0PH3veMtSVvS+bFKdS+O878+nKXZTGxhwepwtPGNj0GqAz7Jc/il+
LuQwZPq2IMQpy0+Ke/8uesrdinEOwg9lJqPManSEvM5Te913oaFBPIM+pODvCRoz
LRpAmsbI39CFzj0VjkCSW2Ifdw177YTyRWCoACnP7sFviscvRjUbpyQkIyRLoL/2
msZuWIqltrIPJw==
-----END CERTIFICATE-----
