Certificate:
    Data:
        Version: 3 (0x2)
        Serial Number: 15415075885696582137 (0xd5ed59d870a281f9)
    Signature Algorithm: sha1WithRSAEncryption
        Issuer: C=US, ST=North Carolina, L=Raleigh, O=Katello, OU=SomeOrgUnit, CN=sat6-ha.sysmgmt.bos.redhat.com
        Validity
            Not Before: Oct 29 11:45:41 2015 GMT
            Not After : Oct 31 11:45:42 2035 GMT
        Subject: C=US, ST=North Carolina, O=FOREMAN, OU=PUPPET, CN=sat6-ha.sysmgmt.bos.redhat.com
        Subject Public Key Info:
            Public Key Algorithm: rsaEncryption
                Public-Key: (2048 bit)
                Modulus:
                    00:cb:8a:6d:20:7f:32:46:03:96:0c:8c:3b:d0:6c:
                    02:4e:c7:36:3a:42:41:42:57:c8:55:23:35:42:e1:
                    80:bf:a8:41:5b:66:fc:29:e0:b8:d9:b8:fd:5d:99:
                    a4:52:3a:cd:ae:b6:26:1b:2f:30:7f:b7:0f:95:14:
                    fc:00:14:47:df:d3:9c:85:21:b3:2b:5b:30:77:46:
                    d1:3c:b9:1d:27:71:32:00:bd:d4:24:b4:54:ab:ea:
                    d8:99:60:b9:09:77:fa:be:0f:78:2d:c4:28:9c:d8:
                    37:9f:b8:c3:6d:fb:03:52:f8:00:9f:70:ed:f9:ce:
                    f6:c1:30:01:f3:9f:a7:c7:88:e4:ed:8e:24:8c:84:
                    be:04:3e:48:5d:ff:8d:c5:76:5d:7e:0c:a1:d8:82:
                    6c:e7:81:28:49:ac:51:6a:ed:e2:5e:c2:29:9a:9f:
                    35:00:58:bb:88:13:f6:82:cb:f9:60:81:12:6b:53:
                    be:61:d2:66:12:fe:c3:82:4f:08:2e:ed:cf:0a:92:
                    89:a5:8c:88:e0:50:74:0d:0a:b4:8a:d4:d7:16:85:
                    cb:a5:59:3f:27:57:7a:33:d9:37:d4:e3:64:e2:33:
                    14:28:f5:b9:00:8e:b0:04:0e:f9:80:0b:d6:d2:06:
                    db:b4:55:e1:00:25:a1:a8:fa:cc:9c:e6:d1:80:8f:
                    75:eb
                Exponent: 65537 (0x10001)
        X509v3 extensions:
            X509v3 Basic Constraints: 
                CA:FALSE
            X509v3 Key Usage: 
                Digital Signature, Key Encipherment
            X509v3 Extended Key Usage: 
                TLS Web Server Authentication, TLS Web Client Authentication
            Netscape Cert Type: 
                SSL Client
            Netscape Comment: 
                Katello SSL Tool Generated Certificate
            X509v3 Subject Key Identifier: 
                32:D6:35:83:3F:05:95:F1:0A:3E:2C:2A:99:0E:22:7C:44:73:29:3D
            X509v3 Authority Key Identifier: 
                keyid:CA:C3:DC:81:00:93:C2:E0:6E:5C:C7:D3:92:4E:58:A0:21:8A:7D:F6
                DirName:/C=US/ST=North Carolina/L=Raleigh/O=Katello/OU=SomeOrgUnit/CN=sat6-ha.sysmgmt.bos.redhat.com
                serial:D5:ED:59:D8:70:A2:81:F8

            X509v3 Subject Alternative Name: 
                DNS:sat6-ha.sysmgmt.bos.redhat.com
    Signature Algorithm: sha1WithRSAEncryption
         aa:16:66:8c:86:27:f6:34:61:5e:95:4c:8b:f2:15:15:30:f6:
         1f:17:fa:d9:fe:e8:c1:00:b0:0c:25:72:41:fd:ef:a3:94:3a:
         e6:7e:ae:97:77:dc:4d:79:72:aa:6f:df:fb:2c:31:b0:0f:0a:
         7d:fe:52:41:29:de:97:39:ef:7d:fc:5a:14:43:c1:2f:50:29:
         9f:59:4c:d2:d3:dd:db:5d:e9:78:ca:2d:c7:d8:ad:c4:1f:15:
         32:7e:40:3a:f6:fc:1d:65:7e:ab:0e:87:20:c5:94:41:f2:48:
         88:c5:7e:e4:db:b9:77:68:c8:53:3e:83:b0:e5:67:21:b7:9f:
         83:78:94:eb:8d:1c:3f:f3:19:a9:07:a0:6d:5f:0b:d4:c5:72:
         4a:ed:99:52:6e:fe:14:91:2b:81:aa:f5:ba:71:b5:4f:0e:6a:
         75:eb:5e:ca:a5:1b:2c:09:16:27:de:0a:d0:13:c7:d0:a5:7d:
         0a:6a:e8:1f:c5:20:cf:95:07:4c:84:15:74:6d:5e:bc:5c:a9:
         b4:b7:96:90:a6:62:f7:af:c9:17:15:2e:d2:29:54:e3:f0:ad:
         9f:05:75:d1:cd:10:41:bb:e2:f4:46:b5:b1:91:6c:6e:e9:a6:
         48:d3:32:42:ef:0a:1f:61:3b:12:2b:e8:d3:49:60:19:16:40:
         00:66:9f:e2
-----BEGIN CERTIFICATE-----
MIIFETCCA/mgAwIBAgIJANXtWdhwooH5MA0GCSqGSIb3DQEBBQUAMIGJMQswCQYD
VQQGEwJVUzEXMBUGA1UECBMOTm9ydGggQ2Fyb2xpbmExEDAOBgNVBAcTB1JhbGVp
Z2gxEDAOBgNVBAoTB0thdGVsbG8xFDASBgNVBAsTC1NvbWVPcmdVbml0MScwJQYD
VQQDEx5zYXQ2LWhhLnN5c21nbXQuYm9zLnJlZGhhdC5jb20wHhcNMTUxMDI5MTE0
NTQxWhcNMzUxMDMxMTE0NTQyWjByMQswCQYDVQQGEwJVUzEXMBUGA1UECBMOTm9y
dGggQ2Fyb2xpbmExEDAOBgNVBAoTB0ZPUkVNQU4xDzANBgNVBAsTBlBVUFBFVDEn
MCUGA1UEAxMec2F0Ni1oYS5zeXNtZ210LmJvcy5yZWRoYXQuY29tMIIBIjANBgkq
hkiG9w0BAQEFAAOCAQ8AMIIBCgKCAQEAy4ptIH8yRgOWDIw70GwCTsc2OkJBQlfI
VSM1QuGAv6hBW2b8KeC42bj9XZmkUjrNrrYmGy8wf7cPlRT8ABRH39OchSGzK1sw
d0bRPLkdJ3EyAL3UJLRUq+rYmWC5CXf6vg94LcQonNg3n7jDbfsDUvgAn3Dt+c72
wTAB85+nx4jk7Y4kjIS+BD5IXf+NxXZdfgyh2IJs54EoSaxRau3iXsIpmp81AFi7
iBP2gsv5YIESa1O+YdJmEv7Dgk8ILu3PCpKJpYyI4FB0DQq0itTXFoXLpVk/J1d6
M9k31ONk4jMUKPW5AI6wBA75gAvW0gbbtFXhACWhqPrMnObRgI916wIDAQABo4IB
kDCCAYwwCQYDVR0TBAIwADALBgNVHQ8EBAMCBaAwHQYDVR0lBBYwFAYIKwYBBQUH
AwEGCCsGAQUFBwMCMBEGCWCGSAGG+EIBAQQEAwIHgDA1BglghkgBhvhCAQ0EKBYm
S2F0ZWxsbyBTU0wgVG9vbCBHZW5lcmF0ZWQgQ2VydGlmaWNhdGUwHQYDVR0OBBYE
FDLWNYM/BZXxCj4sKpkOInxEcyk9MIG+BgNVHSMEgbYwgbOAFMrD3IEAk8LgblzH
05JOWKAhin32oYGPpIGMMIGJMQswCQYDVQQGEwJVUzEXMBUGA1UECBMOTm9ydGgg
Q2Fyb2xpbmExEDAOBgNVBAcTB1JhbGVpZ2gxEDAOBgNVBAoTB0thdGVsbG8xFDAS
BgNVBAsTC1NvbWVPcmdVbml0MScwJQYDVQQDEx5zYXQ2LWhhLnN5c21nbXQuYm9z
LnJlZGhhdC5jb22CCQDV7VnYcKKB+DApBgNVHREEIjAggh5zYXQ2LWhhLnN5c21n
bXQuYm9zLnJlZGhhdC5jb20wDQYJKoZIhvcNAQEFBQADggEBAKoWZoyGJ/Y0YV6V
TIvyFRUw9h8X+tn+6MEAsAwlckH976OUOuZ+rpd33E15cqpv3/ssMbAPCn3+UkEp
3pc57338WhRDwS9QKZ9ZTNLT3dtd6XjKLcfYrcQfFTJ+QDr2/B1lfqsOhyDFlEHy
SIjFfuTbuXdoyFM+g7DlZyG3n4N4lOuNHD/zGakHoG1fC9TFckrtmVJu/hSRK4Gq
9bpxtU8OanXrXsqlGywJFifeCtATx9ClfQpq6B/FIM+VB0yEFXRtXrxcqbS3lpCm
YvevyRcVLtIpVOPwrZ8FddHNEEG74vRGtbGRbG7ppkjTMkLvCh9hOxIr6NNJYBkW
QABmn+I=
-----END CERTIFICATE-----
