Certificate:
    Data:
        Version: 3 (0x2)
        Serial Number: 4096 (0x1000)
    Signature Algorithm: sha256WithRSAEncryption
        Issuer: C=US, ST=TX, L=Dallas, O=SEA, CN=2404:180:2250:1::D112
        Validity
            Not Before: Aug 22 21:11:14 2019 GMT
            Not After : Aug 19 21:11:14 2029 GMT
        Subject: C=US, ST=TX, O=SEA, CN=2404:180:2250:1::D112
        Subject Public Key Info:
            Public Key Algorithm: rsaEncryption
                Public-Key: (2048 bit)
                Modulus:
                    00:c6:79:47:16:4c:ab:31:5c:cc:e4:10:c6:6a:16:
                    4b:e6:f2:b9:fc:93:b1:39:86:2e:06:f0:88:91:68:
                    57:34:1b:05:c0:4c:e2:e1:e2:de:3b:ea:bb:43:10:
                    a7:6d:58:03:3c:ce:3b:38:2f:f0:91:a9:cc:0b:07:
                    14:6f:4a:15:ac:e5:e3:f5:b9:55:26:79:b3:19:c1:
                    89:2b:93:91:e8:c5:0e:d4:85:f7:f7:8d:fa:29:c2:
                    4c:e2:85:65:24:67:27:8d:02:f2:3a:9b:59:ba:f5:
                    35:6a:db:ed:92:09:98:8f:d1:66:f7:8e:20:35:99:
                    55:20:09:2e:13:96:57:67:8e:25:0d:0a:4d:af:8e:
                    67:e0:c3:6e:ad:24:29:ea:bd:1f:43:f1:08:02:75:
                    22:7a:66:a4:15:6f:c0:84:e5:9f:df:0c:0e:17:f0:
                    7d:04:d9:11:51:d9:07:4f:82:f4:a1:35:65:7f:9b:
                    a2:b8:71:35:1f:65:76:16:28:54:bb:54:50:71:57:
                    2b:6b:65:70:30:be:14:ff:41:88:ad:08:a0:af:bd:
                    12:33:c5:09:d4:c1:c8:70:22:26:59:a1:4b:90:5d:
                    7b:9a:76:b3:2e:2e:5d:6f:ff:cd:bf:6d:18:56:19:
                    86:28:f9:0f:6d:6b:19:a4:5d:3b:a1:12:aa:ce:35:
                    05:d7
                Exponent: 65537 (0x10001)
        X509v3 extensions:
            X509v3 Basic Constraints:
                CA:FALSE
            X509v3 Key Usage:
                Digital Signature, Non Repudiation, Key Encipherment
    Signature Algorithm: sha256WithRSAEncryption
         3a:0f:e4:e3:ce:18:b5:cb:ee:32:bd:3e:03:67:62:06:66:db:
         96:33:fa:b6:da:fb:72:8c:92:aa:c1:d3:6f:41:4a:4d:e0:4b:
         e4:c1:ae:e2:40:84:1b:41:c4:6a:9e:84:9f:07:8e:3b:34:d4:
         08:c6:e4:d1:5f:13:c8:db:98:6f:c6:54:4f:6d:ac:76:90:5a:
         c5:15:85:33:f5:1d:f7:ff:3f:9e:25:ed:04:9b:9d:e3:b2:b8:
         e4:f9:1e:be:25:1f:fa:a7:b6:92:59:c9:30:af:ea:e1:05:89:
         25:91:73:17:8f:84:62:cc:c6:87:53:7c:d0:2f:b1:ab:78:a9:
         14:84:7c:93:b8:b2:0e:ea:a9:ea:d1:e0:b7:ae:eb:06:f7:62:
         2f:0b:28:c1:25:fe:24:2d:86:d7:2a:c7:47:e1:7b:c7:64:59:
         c0:3c:0f:0a:77:db:f7:3b:a9:18:b4:d9:a9:15:cd:ee:52:e1:
         d8:cb:94:f8:29:53:75:24:1c:55:22:48:88:b1:08:6d:23:e3:
         be:67:4b:9a:20:43:d0:79:c5:0a:ff:a9:d8:02:5a:60:a6:f0:
         7e:c7:a2:69:d8:4e:da:e1:13:92:d6:bf:74:85:d7:a2:80:ce:
         8f:ab:4c:8c:15:4e:5a:81:13:b3:39:22:c8:2c:14:58:c6:71:
         93:72:88:7b:66:b3:17:e6:4b:03:70:54:cc:52:0b:c9:21:98:
         bf:dc:76:05:5f:00:78:9c:65:44:67:54:7e:34:ff:86:f0:ce:
         c3:23:85:51:88:ac:60:a0:b5:e8:c5:84:ee:ec:1c:14:b8:9f:
         7f:fc:5f:ec:f3:c6:b1:88:45:44:81:4b:d7:69:ea:0a:fa:c5:
         3a:14:3a:7a:14:b6:17:a7:89:e6:e7:fd:47:3e:5a:82:ce:65:
         9e:60:43:c7:78:78:ee:a9:b2:32:76:d8:e4:5d:22:71:49:0e:
         e4:94:3f:04:b2:b8:27:d8:8d:f4:96:08:f0:35:34:2e:35:8b:
         6a:11:71:67:21:5f:3f:33:d6:07:83:50:e7:70:57:20:67:7d:
         20:9c:d4:c1:2d:0b:db:4b:99:28:a5:bd:01:64:17:3d:56:04:
         38:df:67:e9:3a:02:46:82:09:cc:9a:d3:8f:4e:d5:a7:1e:78:
         96:6b:1a:73:04:55:aa:24:ce:91:ff:38:40:ec:8f:ed:0a:04:
         8d:2a:d5:7b:f0:aa:32:df:d6:b1:a0:c8:5b:17:2e:d2:32:6d:
         70:37:01:de:60:a0:77:02:29:bc:96:4f:f3:59:6f:b0:e9:8a:
         81:4e:d6:d5:cb:93:09:8c:05:88:01:99:40:c3:15:e1:19:db:
         37:47:d3:a5:33:34:c5:e8
-----BEGIN CERTIFICATE-----
MIIENzCCAh+gAwIBAgICEAAwDQYJKoZIhvcNAQELBQAwWTELMAkGA1UEBhMCVVMx
CzAJBgNVBAgMAlRYMQ8wDQYDVQQHDAZEYWxsYXMxDDAKBgNVBAoMA1NFQTEeMBwG
A1UEAwwVMjQwNDoxODA6MjI1MDoxOjpEMTEyMB4XDTE5MDgyMjIxMTExNFoXDTI5
MDgxOTIxMTExNFowSDELMAkGA1UEBhMCVVMxCzAJBgNVBAgMAlRYMQwwCgYDVQQK
DANTRUExHjAcBgNVBAMMFTI0MDQ6MTgwOjIyNTA6MTo6RDExMjCCASIwDQYJKoZI
hvcNAQEBBQADggEPADCCAQoCggEBAMZ5RxZMqzFczOQQxmoWS+byufyTsTmGLgbw
iJFoVzQbBcBM4uHi3jvqu0MQp21YAzzOOzgv8JGpzAsHFG9KFazl4/W5VSZ5sxnB
iSuTkejFDtSF9/eN+inCTOKFZSRnJ40C8jqbWbr1NWrb7ZIJmI/RZveOIDWZVSAJ
LhOWV2eOJQ0KTa+OZ+DDbq0kKeq9H0PxCAJ1InpmpBVvwITln98MDhfwfQTZEVHZ
B0+C9KE1ZX+borhxNR9ldhYoVLtUUHFXK2tlcDC+FP9BiK0IoK+9EjPFCdTByHAi
JlmhS5Bde5p2sy4uXW//zb9tGFYZhij5D21rGaRdO6ESqs41BdcCAwEAAaMaMBgw
CQYDVR0TBAIwADALBgNVHQ8EBAMCBeAwDQYJKoZIhvcNAQELBQADggIBADoP5OPO
GLXL7jK9PgNnYgZm25Yz+rba+3KMkqrB029BSk3gS+TBruJAhBtBxGqehJ8Hjjs0
1AjG5NFfE8jbmG/GVE9trHaQWsUVhTP1Hff/P54l7QSbneOyuOT5Hr4lH/qntpJZ
yTCv6uEFiSWRcxePhGLMxodTfNAvsat4qRSEfJO4sg7qqerR4Leu6wb3Yi8LKMEl
/iQthtcqx0fhe8dkWcA8Dwp32/c7qRi02akVze5S4djLlPgpU3UkHFUiSIixCG0j
475nS5ogQ9B5xQr/qdgCWmCm8H7HomnYTtrhE5LWv3SF16KAzo+rTIwVTlqBE7M5
IsgsFFjGcZNyiHtmsxfmSwNwVMxSC8khmL/cdgVfAHicZURnVH40/4bwzsMjhVGI
rGCgtejFhO7sHBS4n3/8X+zzxrGIRUSBS9dp6gr6xToUOnoUtheniebn/Uc+WoLO
ZZ5gQ8d4eO6psjJ22ORdInFJDuSUPwSyuCfYjfSWCPA1NC41i2oRcWchXz8z1geD
UOdwVyBnfSCc1MEtC9tLmSilvQFkFz1WBDjfZ+k6AkaCCcya049O1aceeJZrGnME
VaokzpH/OEDsj+0KBI0q1XvwqjLf1rGgyFsXLtIybXA3Ad5goHcCKbyWT/NZb7Dp
ioFO1tXLkwmMBYgBmUDDFeEZ2zdH06UzNMXo
-----END CERTIFICATE-----
