Certificate:
    Data:
        Version: 3 (0x2)
        Serial Number: 15415075885696582140 (0xd5ed59d870a281fc)
    Signature Algorithm: sha1WithRSAEncryption
        Issuer: C=US, ST=North Carolina, L=Raleigh, O=Katello, OU=SomeOrgUnit, CN=sat6-ha.sysmgmt.bos.redhat.com
        Validity
            Not Before: Oct 29 11:46:01 2015 GMT
            Not After : Oct 31 11:46:02 2035 GMT
        Subject: C=US, ST=North Carolina, O=FOREMAN, OU=PUPPET, CN=sat6-ha.sysmgmt.bos.redhat.com
        Subject Public Key Info:
            Public Key Algorithm: rsaEncryption
                Public-Key: (2048 bit)
                Modulus:
                    00:f1:d8:21:5e:6e:22:92:a4:8e:ef:9f:57:24:41:
                    08:ad:46:97:65:4f:3a:bf:eb:58:fe:a0:52:c7:be:
                    10:24:4f:b2:83:9d:08:24:94:7c:ed:1e:c2:90:2f:
                    09:2b:de:2b:9e:32:59:13:32:1a:ec:e7:24:0f:9d:
                    89:9b:a7:b2:6b:8c:6a:41:36:a1:24:18:7a:9f:72:
                    f4:7b:94:be:3a:4e:f7:58:1d:63:84:67:5e:58:2b:
                    f0:0d:d5:fd:7e:d1:68:76:c7:a5:2c:6f:58:62:8f:
                    5d:64:8e:32:a8:a2:d7:4c:13:be:00:d7:fb:1b:87:
                    9c:7f:03:30:f9:ee:02:ab:39:fa:54:63:e9:de:85:
                    f7:5c:60:aa:65:c2:b7:61:98:fa:47:5a:bf:42:73:
                    c1:51:4c:dc:fd:1a:3f:1d:62:fb:41:2c:cc:69:ee:
                    d0:6a:80:2b:89:dd:70:b6:dc:ab:9c:b3:4f:38:79:
                    14:3c:05:3c:21:4a:f2:97:e8:b0:35:7b:3d:df:47:
                    e2:9b:6b:55:e3:02:cb:1b:ae:60:68:41:9a:8f:d5:
                    8d:db:26:0c:39:1d:b0:6b:ed:e9:56:1f:3d:67:72:
                    ba:ca:e6:89:75:bc:16:18:68:dd:37:92:35:46:1d:
                    cb:87:cc:16:0d:dc:ab:bd:d6:ac:05:76:6c:be:52:
                    af:a1
                Exponent: 65537 (0x10001)
        X509v3 extensions:
            X509v3 Basic Constraints: 
                CA:FALSE
            X509v3 Key Usage: 
                Digital Signature, Key Encipherment
            X509v3 Extended Key Usage: 
                TLS Web Server Authentication, TLS Web Client Authentication
            Netscape Cert Type: 
                SSL Client
            Netscape Comment: 
                Katello SSL Tool Generated Certificate
            X509v3 Subject Key Identifier: 
                2C:3C:18:23:EA:EA:FD:F5:0C:CA:16:DD:D6:47:4F:CE:14:15:DE:09
            X509v3 Authority Key Identifier: 
                keyid:CA:C3:DC:81:00:93:C2:E0:6E:5C:C7:D3:92:4E:58:A0:21:8A:7D:F6
                DirName:/C=US/ST=North Carolina/L=Raleigh/O=Katello/OU=SomeOrgUnit/CN=sat6-ha.sysmgmt.bos.redhat.com
                serial:D5:ED:59:D8:70:A2:81:F8

            X509v3 Subject Alternative Name: 
                DNS:sat6-ha.sysmgmt.bos.redhat.com
    Signature Algorithm: sha1WithRSAEncryption
         8e:64:3a:dd:9f:e5:04:e1:ed:ae:c9:98:00:7b:b2:1f:c2:89:
         1a:f0:c1:c8:36:c1:e4:59:e3:93:1b:48:d7:db:e4:49:9d:99:
         1a:e2:e5:fe:d8:8f:38:eb:a2:77:0a:ed:8e:d5:65:ff:f0:c3:
         6f:79:a7:b0:39:fb:c7:d9:8b:91:00:56:15:d1:a8:12:86:4b:
         08:72:7f:71:4e:ae:57:96:9a:67:c9:24:a9:f2:f5:a3:49:a4:
         06:e2:80:c2:03:7d:a1:9e:bf:ea:5f:0f:9d:43:5f:2d:f6:6c:
         b8:48:f4:f3:5e:f7:37:4c:1b:8e:89:0f:82:fd:75:06:f0:6f:
         aa:c9:9c:4e:89:0e:86:ac:1e:34:b9:7a:94:a1:22:1a:3d:b1:
         51:bc:a8:1b:34:f5:06:e4:71:91:47:ac:90:cd:ae:5c:59:61:
         61:1f:b3:29:6d:89:4a:43:4b:cb:b2:8d:d1:65:80:58:5b:0d:
         9b:2a:a5:84:00:dc:a4:c0:82:4d:db:67:3d:6c:e6:d4:bc:17:
         d5:a9:0e:15:6d:ae:18:5f:6d:10:a5:7f:38:7c:ae:9e:b5:d0:
         72:43:3a:25:30:a4:ca:0c:73:2a:2c:88:4a:82:05:e0:ac:57:
         69:36:1d:c6:4b:43:3b:44:6e:6e:27:88:a8:af:4f:0d:dd:45:
         48:94:7d:ef
-----BEGIN CERTIFICATE-----
MIIFETCCA/mgAwIBAgIJANXtWdhwooH8MA0GCSqGSIb3DQEBBQUAMIGJMQswCQYD
VQQGEwJVUzEXMBUGA1UECBMOTm9ydGggQ2Fyb2xpbmExEDAOBgNVBAcTB1JhbGVp
Z2gxEDAOBgNVBAoTB0thdGVsbG8xFDASBgNVBAsTC1NvbWVPcmdVbml0MScwJQYD
VQQDEx5zYXQ2LWhhLnN5c21nbXQuYm9zLnJlZGhhdC5jb20wHhcNMTUxMDI5MTE0
NjAxWhcNMzUxMDMxMTE0NjAyWjByMQswCQYDVQQGEwJVUzEXMBUGA1UECBMOTm9y
dGggQ2Fyb2xpbmExEDAOBgNVBAoTB0ZPUkVNQU4xDzANBgNVBAsTBlBVUFBFVDEn
MCUGA1UEAxMec2F0Ni1oYS5zeXNtZ210LmJvcy5yZWRoYXQuY29tMIIBIjANBgkq
hkiG9w0BAQEFAAOCAQ8AMIIBCgKCAQEA8dghXm4ikqSO759XJEEIrUaXZU86v+tY
/qBSx74QJE+yg50IJJR87R7CkC8JK94rnjJZEzIa7OckD52Jm6eya4xqQTahJBh6
n3L0e5S+Ok73WB1jhGdeWCvwDdX9ftFodselLG9YYo9dZI4yqKLXTBO+ANf7G4ec
fwMw+e4Cqzn6VGPp3oX3XGCqZcK3YZj6R1q/QnPBUUzc/Ro/HWL7QSzMae7QaoAr
id1wttyrnLNPOHkUPAU8IUryl+iwNXs930fim2tV4wLLG65gaEGaj9WN2yYMOR2w
a+3pVh89Z3K6yuaJdbwWGGjdN5I1Rh3Lh8wWDdyrvdasBXZsvlKvoQIDAQABo4IB
kDCCAYwwCQYDVR0TBAIwADALBgNVHQ8EBAMCBaAwHQYDVR0lBBYwFAYIKwYBBQUH
AwEGCCsGAQUFBwMCMBEGCWCGSAGG+EIBAQQEAwIHgDA1BglghkgBhvhCAQ0EKBYm
S2F0ZWxsbyBTU0wgVG9vbCBHZW5lcmF0ZWQgQ2VydGlmaWNhdGUwHQYDVR0OBBYE
FCw8GCPq6v31DMoW3dZHT84UFd4JMIG+BgNVHSMEgbYwgbOAFMrD3IEAk8LgblzH
05JOWKAhin32oYGPpIGMMIGJMQswCQYDVQQGEwJVUzEXMBUGA1UECBMOTm9ydGgg
Q2Fyb2xpbmExEDAOBgNVBAcTB1JhbGVpZ2gxEDAOBgNVBAoTB0thdGVsbG8xFDAS
BgNVBAsTC1NvbWVPcmdVbml0MScwJQYDVQQDEx5zYXQ2LWhhLnN5c21nbXQuYm9z
LnJlZGhhdC5jb22CCQDV7VnYcKKB+DApBgNVHREEIjAggh5zYXQ2LWhhLnN5c21n
bXQuYm9zLnJlZGhhdC5jb20wDQYJKoZIhvcNAQEFBQADggEBAI5kOt2f5QTh7a7J
mAB7sh/CiRrwwcg2weRZ45MbSNfb5EmdmRri5f7YjzjroncK7Y7VZf/ww295p7A5
+8fZi5EAVhXRqBKGSwhyf3FOrleWmmfJJKny9aNJpAbigMIDfaGev+pfD51DXy32
bLhI9PNe9zdMG46JD4L9dQbwb6rJnE6JDoasHjS5epShIho9sVG8qBs09QbkcZFH
rJDNrlxZYWEfsyltiUpDS8uyjdFlgFhbDZsqpYQA3KTAgk3bZz1s5tS8F9WpDhVt
rhhfbRClfzh8rp610HJDOiUwpMoMcyosiEqCBeCsV2k2HcZLQztEbm4niKivTw3d
RUiUfe8=
-----END CERTIFICATE-----
